; Function Attrs: mustprogress uwtable
define void @_ZN2cv3hal10absdiff32fEPKfmS2_mPfmiiPv(ptr nocapture noundef readonly %0, i64 noundef %1, ptr nocapture noundef readonly %2, i64 noundef %3, ptr nocapture noundef writeonly %4, i64 noundef %5, i32 noundef %6, i32 noundef %7, ptr nocapture noundef readnone %8) local_unnamed_addr #0 personality ptr @__gxx_personality_v0 {
  %10 = alloca %"class.cv::utils::trace::details::Region", align 8
  %11 = alloca %"class.cv::utils::trace::details::Region", align 8
  call void @_ZN2cv5utils5trace7details6RegionC1ERKNS3_21LocationStaticStorageE(ptr noundef nonnull align 8 dereferenceable(12) %11, ptr noundef nonnull align 8 dereferenceable(32) @_ZZN2cv3hal10absdiff32fEPKfmS2_mPfmiiPvE25__cv_trace_location_fn547)
  call void @llvm.lifetime.start.p0(i64 16, ptr nonnull %10)
  invoke void @_ZN2cv5utils5trace7details6RegionC1ERKNS3_21LocationStaticStorageE(ptr noundef nonnull align 8 dereferenceable(12) %10, ptr noundef nonnull align 8 dereferenceable(32) @_ZZN2cv3hal12cpu_baseline10absdiff32fEPKfmS3_mPfmiiE25__cv_trace_location_fn547)
          to label %.noexc unwind label %41

.noexc:                                           ; preds = %9
  %12 = lshr i64 %1, 2
  %13 = lshr i64 %3, 2
  %14 = lshr i64 %5, 2
  %.not23.i.i = icmp ne i32 %7, 0
  %15 = icmp sgt i32 %6, 0
  %or.cond.i.i = and i1 %15, %.not23.i.i
  br i1 %or.cond.i.i, label %.preheader.us.preheader.i.i, label %_ZN2cv3hal12cpu_baselineL8bin_loopINS1_10op_absdiffEfNS_12hal_baseline5v_regIfLi4EEEEEvPKT0_mS9_mPS7_mii.exit.i

.preheader.us.preheader.i.i:                      ; preds = %.noexc
  %wide.trip.count.i.i = zext nneg i32 %6 to i64
  br label %.preheader.us.i.i

.preheader.us.i.i:                                ; preds = %._crit_edge.us.i.i, %.preheader.us.preheader.i.i
  %.in.i.i = phi i32 [ %24, %._crit_edge.us.i.i ], [ %7, %.preheader.us.preheader.i.i ]
  %.01926.us.i.i = phi ptr [ %25, %._crit_edge.us.i.i ], [ %0, %.preheader.us.preheader.i.i ]
  %.02025.us.i.i = phi ptr [ %27, %._crit_edge.us.i.i ], [ %4, %.preheader.us.preheader.i.i ]
  %.02124.us.i.i = phi ptr [ %26, %._crit_edge.us.i.i ], [ %2, %.preheader.us.preheader.i.i ]
  br label %16

16:                                               ; preds = %16, %.preheader.us.i.i
  %indvars.iv.i.i = phi i64 [ 0, %.preheader.us.i.i ], [ %indvars.iv.next.i.i, %16 ]
  %17 = getelementptr inbounds float, ptr %.01926.us.i.i, i64 %indvars.iv.i.i
  %18 = load float, ptr %17, align 4
  %19 = getelementptr inbounds float, ptr %.02124.us.i.i, i64 %indvars.iv.i.i
  %20 = load float, ptr %19, align 4
  %21 = fsub float %18, %20
  %22 = call noundef float @llvm.fabs.f32(float %21)
  %23 = getelementptr inbounds float, ptr %.02025.us.i.i, i64 %indvars.iv.i.i
  store float %22, ptr %23, align 4
  %indvars.iv.next.i.i = add nuw nsw i64 %indvars.iv.i.i, 1
  %exitcond.not.i.i = icmp eq i64 %indvars.iv.next.i.i, %wide.trip.count.i.i
  br i1 %exitcond.not.i.i, label %._crit_edge.us.i.i, label %16, !llvm.loop !75

._crit_edge.us.i.i:                               ; preds = %16
  %24 = add nsw i32 %.in.i.i, -1
  %25 = getelementptr inbounds float, ptr %.01926.us.i.i, i64 %12
  %26 = getelementptr inbounds float, ptr %.02124.us.i.i, i64 %13
  %27 = getelementptr inbounds float, ptr %.02025.us.i.i, i64 %14
  %.not.us.i.i = icmp eq i32 %24, 0
  br i1 %.not.us.i.i, label %_ZN2cv3hal12cpu_baselineL8bin_loopINS1_10op_absdiffEfNS_12hal_baseline5v_regIfLi4EEEEEvPKT0_mS9_mPS7_mii.exit.i, label %.preheader.us.i.i, !llvm.loop !76

_ZN2cv3hal12cpu_baselineL8bin_loopINS1_10op_absdiffEfNS_12hal_baseline5v_regIfLi4EEEEEvPKT0_mS9_mPS7_mii.exit.i: ; preds = %._crit_edge.us.i.i, %.noexc
  %28 = getelementptr inbounds i8, ptr %10, i64 8
  %29 = load i32, ptr %28, align 8
  %.not.i.i = icmp eq i32 %29, 0
  br i1 %.not.i.i, label %34, label %30

30:                                               ; preds = %_ZN2cv3hal12cpu_baselineL8bin_loopINS1_10op_absdiffEfNS_12hal_baseline5v_regIfLi4EEEEEvPKT0_mS9_mPS7_mii.exit.i
  invoke void @_ZN2cv5utils5trace7details6Region7destroyEv(ptr noundef nonnull align 8 dereferenceable(12) %10)
          to label %34 unwind label %31

31:                                               ; preds = %30
  %32 = landingpad { ptr, i32 }
          catch ptr null
  %33 = extractvalue { ptr, i32 } %32, 0
  call void @__clang_call_terminate(ptr %33) #11
  unreachable

34:                                               ; preds = %30, %_ZN2cv3hal12cpu_baselineL8bin_loopINS1_10op_absdiffEfNS_12hal_baseline5v_regIfLi4EEEEEvPKT0_mS9_mPS7_mii.exit.i
  call void @llvm.lifetime.end.p0(i64 16, ptr nonnull %10)
  %35 = getelementptr inbounds i8, ptr %11, i64 8
  %36 = load i32, ptr %35, align 8
  %.not.i = icmp eq i32 %36, 0
  br i1 %.not.i, label %_ZN2cv5utils5trace7details6RegionD2Ev.exit, label %37

37:                                               ; preds = %34
  invoke void @_ZN2cv5utils5trace7details6Region7destroyEv(ptr noundef nonnull align 8 dereferenceable(12) %11)
          to label %_ZN2cv5utils5trace7details6RegionD2Ev.exit unwind label %38

38:                                               ; preds = %37
  %39 = landingpad { ptr, i32 }
          catch ptr null
  %40 = extractvalue { ptr, i32 } %39, 0
  call void @__clang_call_terminate(ptr %40) #11
  unreachable

_ZN2cv5utils5trace7details6RegionD2Ev.exit:       ; preds = %34, %37
  ret void

41:                                               ; preds = %9
  %42 = landingpad { ptr, i32 }
          cleanup
  call void @_ZN2cv5utils5trace7details6RegionD2Ev(ptr noundef nonnull align 8 dereferenceable(12) %11) #12
  resume { ptr, i32 } %42
}